
build/src/main.o:     file format elf32-littlearm


Disassembly of section .text.__NVIC_EnableIRQ:

00000000 <__NVIC_EnableIRQ>:
   0:	b480      	push	{r7}
   2:	b083      	sub	sp, #12
   4:	af00      	add	r7, sp, #0
   6:	4603      	mov	r3, r0
   8:	71fb      	strb	r3, [r7, #7]
   a:	f997 3007 	ldrsb.w	r3, [r7, #7]
   e:	2b00      	cmp	r3, #0
  10:	db0b      	blt.n	2a <__NVIC_EnableIRQ+0x2a>
  12:	79fb      	ldrb	r3, [r7, #7]
  14:	f003 021f 	and.w	r2, r3, #31
  18:	4906      	ldr	r1, [pc, #24]	; (34 <__NVIC_EnableIRQ+0x34>)
  1a:	f997 3007 	ldrsb.w	r3, [r7, #7]
  1e:	095b      	lsrs	r3, r3, #5
  20:	2001      	movs	r0, #1
  22:	fa00 f202 	lsl.w	r2, r0, r2
  26:	f841 2023 	str.w	r2, [r1, r3, lsl #2]
  2a:	bf00      	nop
  2c:	370c      	adds	r7, #12
  2e:	46bd      	mov	sp, r7
  30:	bc80      	pop	{r7}
  32:	4770      	bx	lr
  34:	e000e100 	and	lr, r0, r0, lsl #2

Disassembly of section .text.__NVIC_SetPriority:

00000000 <__NVIC_SetPriority>:
   0:	b480      	push	{r7}
   2:	b083      	sub	sp, #12
   4:	af00      	add	r7, sp, #0
   6:	4603      	mov	r3, r0
   8:	6039      	str	r1, [r7, #0]
   a:	71fb      	strb	r3, [r7, #7]
   c:	f997 3007 	ldrsb.w	r3, [r7, #7]
  10:	2b00      	cmp	r3, #0
  12:	db0a      	blt.n	2a <__NVIC_SetPriority+0x2a>
  14:	683b      	ldr	r3, [r7, #0]
  16:	b2da      	uxtb	r2, r3
  18:	490c      	ldr	r1, [pc, #48]	; (4c <__NVIC_SetPriority+0x4c>)
  1a:	f997 3007 	ldrsb.w	r3, [r7, #7]
  1e:	0112      	lsls	r2, r2, #4
  20:	b2d2      	uxtb	r2, r2
  22:	440b      	add	r3, r1
  24:	f883 2300 	strb.w	r2, [r3, #768]	; 0x300
  28:	e00a      	b.n	40 <__NVIC_SetPriority+0x40>
  2a:	683b      	ldr	r3, [r7, #0]
  2c:	b2da      	uxtb	r2, r3
  2e:	4908      	ldr	r1, [pc, #32]	; (50 <__NVIC_SetPriority+0x50>)
  30:	79fb      	ldrb	r3, [r7, #7]
  32:	f003 030f 	and.w	r3, r3, #15
  36:	3b04      	subs	r3, #4
  38:	0112      	lsls	r2, r2, #4
  3a:	b2d2      	uxtb	r2, r2
  3c:	440b      	add	r3, r1
  3e:	761a      	strb	r2, [r3, #24]
  40:	bf00      	nop
  42:	370c      	adds	r7, #12
  44:	46bd      	mov	sp, r7
  46:	bc80      	pop	{r7}
  48:	4770      	bx	lr
  4a:	bf00      	nop
  4c:	e000e100 	and	lr, r0, r0, lsl #2
  50:	e000ed00 	and	lr, r0, r0, lsl #26

Disassembly of section .text.SysTick_Config:

00000000 <SysTick_Config>:
   0:	b580      	push	{r7, lr}
   2:	b082      	sub	sp, #8
   4:	af00      	add	r7, sp, #0
   6:	6078      	str	r0, [r7, #4]
   8:	687b      	ldr	r3, [r7, #4]
   a:	3b01      	subs	r3, #1
   c:	f1b3 7f80 	cmp.w	r3, #16777216	; 0x1000000
  10:	d301      	bcc.n	16 <SysTick_Config+0x16>
  12:	2301      	movs	r3, #1
  14:	e00f      	b.n	36 <SysTick_Config+0x36>
  16:	4a0a      	ldr	r2, [pc, #40]	; (40 <SysTick_Config+0x40>)
  18:	687b      	ldr	r3, [r7, #4]
  1a:	3b01      	subs	r3, #1
  1c:	6053      	str	r3, [r2, #4]
  1e:	210f      	movs	r1, #15
  20:	f04f 30ff 	mov.w	r0, #4294967295	; 0xffffffff
  24:	f7ff fffe 	bl	0 <SysTick_Config>
  28:	4b05      	ldr	r3, [pc, #20]	; (40 <SysTick_Config+0x40>)
  2a:	2200      	movs	r2, #0
  2c:	609a      	str	r2, [r3, #8]
  2e:	4b04      	ldr	r3, [pc, #16]	; (40 <SysTick_Config+0x40>)
  30:	2207      	movs	r2, #7
  32:	601a      	str	r2, [r3, #0]
  34:	2300      	movs	r3, #0
  36:	4618      	mov	r0, r3
  38:	3708      	adds	r7, #8
  3a:	46bd      	mov	sp, r7
  3c:	bd80      	pop	{r7, pc}
  3e:	bf00      	nop
  40:	e000e010 	and	lr, r0, r0, lsl r0

Disassembly of section .text.USART1_init:

00000000 <USART1_init>:
   0:	b580      	push	{r7, lr}
   2:	b084      	sub	sp, #16
   4:	af00      	add	r7, sp, #0
   6:	6078      	str	r0, [r7, #4]
   8:	4b16      	ldr	r3, [pc, #88]	; (64 <USART1_init+0x64>)
   a:	699b      	ldr	r3, [r3, #24]
   c:	4a15      	ldr	r2, [pc, #84]	; (64 <USART1_init+0x64>)
   e:	f443 4380 	orr.w	r3, r3, #16384	; 0x4000
  12:	f043 0304 	orr.w	r3, r3, #4
  16:	6193      	str	r3, [r2, #24]
  18:	4b13      	ldr	r3, [pc, #76]	; (68 <USART1_init+0x68>)
  1a:	685b      	ldr	r3, [r3, #4]
  1c:	4a12      	ldr	r2, [pc, #72]	; (68 <USART1_init+0x68>)
  1e:	f423 637f 	bic.w	r3, r3, #4080	; 0xff0
  22:	6053      	str	r3, [r2, #4]
  24:	4b10      	ldr	r3, [pc, #64]	; (68 <USART1_init+0x68>)
  26:	685b      	ldr	r3, [r3, #4]
  28:	4a0f      	ldr	r2, [pc, #60]	; (68 <USART1_init+0x68>)
  2a:	f043 03b0 	orr.w	r3, r3, #176	; 0xb0
  2e:	6053      	str	r3, [r2, #4]
  30:	4b0d      	ldr	r3, [pc, #52]	; (68 <USART1_init+0x68>)
  32:	685b      	ldr	r3, [r3, #4]
  34:	4a0c      	ldr	r2, [pc, #48]	; (68 <USART1_init+0x68>)
  36:	f443 6380 	orr.w	r3, r3, #1024	; 0x400
  3a:	6053      	str	r3, [r2, #4]
  3c:	4b0b      	ldr	r3, [pc, #44]	; (6c <USART1_init+0x6c>)
  3e:	681a      	ldr	r2, [r3, #0]
  40:	687b      	ldr	r3, [r7, #4]
  42:	fbb2 f3f3 	udiv	r3, r2, r3
  46:	60fb      	str	r3, [r7, #12]
  48:	4a09      	ldr	r2, [pc, #36]	; (70 <USART1_init+0x70>)
  4a:	68fb      	ldr	r3, [r7, #12]
  4c:	6093      	str	r3, [r2, #8]
  4e:	4b08      	ldr	r3, [pc, #32]	; (70 <USART1_init+0x70>)
  50:	f242 022c 	movw	r2, #8236	; 0x202c
  54:	60da      	str	r2, [r3, #12]
  56:	2025      	movs	r0, #37	; 0x25
  58:	f7ff fffe 	bl	0 <USART1_init>
  5c:	bf00      	nop
  5e:	3710      	adds	r7, #16
  60:	46bd      	mov	sp, r7
  62:	bd80      	pop	{r7, pc}
  64:	40021000 	andmi	r1, r2, r0
  68:	40010800 	andmi	r0, r1, r0, lsl #16
  6c:	00000000 	andeq	r0, r0, r0
  70:	40013800 	andmi	r3, r1, r0, lsl #16

Disassembly of section .text.init_clock:

00000000 <init_clock>:
   0:	b480      	push	{r7}
   2:	af00      	add	r7, sp, #0
   4:	4b24      	ldr	r3, [pc, #144]	; (98 <init_clock+0x98>)
   6:	681b      	ldr	r3, [r3, #0]
   8:	4a23      	ldr	r2, [pc, #140]	; (98 <init_clock+0x98>)
   a:	f043 0304 	orr.w	r3, r3, #4
   e:	6013      	str	r3, [r2, #0]
  10:	4b22      	ldr	r3, [pc, #136]	; (9c <init_clock+0x9c>)
  12:	685b      	ldr	r3, [r3, #4]
  14:	4a21      	ldr	r2, [pc, #132]	; (9c <init_clock+0x9c>)
  16:	f443 6380 	orr.w	r3, r3, #1024	; 0x400
  1a:	6053      	str	r3, [r2, #4]
  1c:	4b1f      	ldr	r3, [pc, #124]	; (9c <init_clock+0x9c>)
  1e:	4a1f      	ldr	r2, [pc, #124]	; (9c <init_clock+0x9c>)
  20:	685b      	ldr	r3, [r3, #4]
  22:	6053      	str	r3, [r2, #4]
  24:	4b1d      	ldr	r3, [pc, #116]	; (9c <init_clock+0x9c>)
  26:	681b      	ldr	r3, [r3, #0]
  28:	4a1c      	ldr	r2, [pc, #112]	; (9c <init_clock+0x9c>)
  2a:	f443 3380 	orr.w	r3, r3, #65536	; 0x10000
  2e:	6013      	str	r3, [r2, #0]
  30:	bf00      	nop
  32:	4b1a      	ldr	r3, [pc, #104]	; (9c <init_clock+0x9c>)
  34:	681b      	ldr	r3, [r3, #0]
  36:	f403 3300 	and.w	r3, r3, #131072	; 0x20000
  3a:	2b00      	cmp	r3, #0
  3c:	d0f9      	beq.n	32 <init_clock+0x32>
  3e:	4b17      	ldr	r3, [pc, #92]	; (9c <init_clock+0x9c>)
  40:	685b      	ldr	r3, [r3, #4]
  42:	4a16      	ldr	r2, [pc, #88]	; (9c <init_clock+0x9c>)
  44:	f443 3380 	orr.w	r3, r3, #65536	; 0x10000
  48:	6053      	str	r3, [r2, #4]
  4a:	4b14      	ldr	r3, [pc, #80]	; (9c <init_clock+0x9c>)
  4c:	685b      	ldr	r3, [r3, #4]
  4e:	4a13      	ldr	r2, [pc, #76]	; (9c <init_clock+0x9c>)
  50:	f443 13e0 	orr.w	r3, r3, #1835008	; 0x1c0000
  54:	6053      	str	r3, [r2, #4]
  56:	4b11      	ldr	r3, [pc, #68]	; (9c <init_clock+0x9c>)
  58:	681b      	ldr	r3, [r3, #0]
  5a:	4a10      	ldr	r2, [pc, #64]	; (9c <init_clock+0x9c>)
  5c:	f043 7380 	orr.w	r3, r3, #16777216	; 0x1000000
  60:	6013      	str	r3, [r2, #0]
  62:	bf00      	nop
  64:	4b0d      	ldr	r3, [pc, #52]	; (9c <init_clock+0x9c>)
  66:	681b      	ldr	r3, [r3, #0]
  68:	f003 7300 	and.w	r3, r3, #33554432	; 0x2000000
  6c:	2b00      	cmp	r3, #0
  6e:	d0f9      	beq.n	64 <init_clock+0x64>
  70:	4b0a      	ldr	r3, [pc, #40]	; (9c <init_clock+0x9c>)
  72:	685b      	ldr	r3, [r3, #4]
  74:	4a09      	ldr	r2, [pc, #36]	; (9c <init_clock+0x9c>)
  76:	f043 0302 	orr.w	r3, r3, #2
  7a:	6053      	str	r3, [r2, #4]
  7c:	bf00      	nop
  7e:	4b07      	ldr	r3, [pc, #28]	; (9c <init_clock+0x9c>)
  80:	685b      	ldr	r3, [r3, #4]
  82:	f003 0308 	and.w	r3, r3, #8
  86:	2b00      	cmp	r3, #0
  88:	d0f9      	beq.n	7e <init_clock+0x7e>
  8a:	4b05      	ldr	r3, [pc, #20]	; (a0 <init_clock+0xa0>)
  8c:	4a05      	ldr	r2, [pc, #20]	; (a4 <init_clock+0xa4>)
  8e:	601a      	str	r2, [r3, #0]
  90:	bf00      	nop
  92:	46bd      	mov	sp, r7
  94:	bc80      	pop	{r7}
  96:	4770      	bx	lr
  98:	40022000 	andmi	r2, r2, r0
  9c:	40021000 	andmi	r1, r2, r0
  a0:	00000000 	andeq	r0, r0, r0
  a4:	044aa200 	strbeq	sl, [sl], #-512	; 0xfffffe00

Disassembly of section .text.init_adc:

00000000 <init_adc>:
   0:	b580      	push	{r7, lr}
   2:	af00      	add	r7, sp, #0
   4:	4b27      	ldr	r3, [pc, #156]	; (a4 <init_adc+0xa4>)
   6:	685b      	ldr	r3, [r3, #4]
   8:	4a26      	ldr	r2, [pc, #152]	; (a4 <init_adc+0xa4>)
   a:	f443 4300 	orr.w	r3, r3, #32768	; 0x8000
   e:	6053      	str	r3, [r2, #4]
  10:	4b24      	ldr	r3, [pc, #144]	; (a4 <init_adc+0xa4>)
  12:	699b      	ldr	r3, [r3, #24]
  14:	4a23      	ldr	r2, [pc, #140]	; (a4 <init_adc+0xa4>)
  16:	f443 7301 	orr.w	r3, r3, #516	; 0x204
  1a:	6193      	str	r3, [r2, #24]
  1c:	4b22      	ldr	r3, [pc, #136]	; (a8 <init_adc+0xa8>)
  1e:	681b      	ldr	r3, [r3, #0]
  20:	4a21      	ldr	r2, [pc, #132]	; (a8 <init_adc+0xa8>)
  22:	f023 030f 	bic.w	r3, r3, #15
  26:	6013      	str	r3, [r2, #0]
  28:	4b20      	ldr	r3, [pc, #128]	; (ac <init_adc+0xac>)
  2a:	691b      	ldr	r3, [r3, #16]
  2c:	4a1f      	ldr	r2, [pc, #124]	; (ac <init_adc+0xac>)
  2e:	f043 0303 	orr.w	r3, r3, #3
  32:	6113      	str	r3, [r2, #16]
  34:	4b1d      	ldr	r3, [pc, #116]	; (ac <init_adc+0xac>)
  36:	685b      	ldr	r3, [r3, #4]
  38:	4a1c      	ldr	r2, [pc, #112]	; (ac <init_adc+0xac>)
  3a:	f043 0320 	orr.w	r3, r3, #32
  3e:	6053      	str	r3, [r2, #4]
  40:	4b1a      	ldr	r3, [pc, #104]	; (ac <init_adc+0xac>)
  42:	689b      	ldr	r3, [r3, #8]
  44:	4a19      	ldr	r2, [pc, #100]	; (ac <init_adc+0xac>)
  46:	f043 0301 	orr.w	r3, r3, #1
  4a:	6093      	str	r3, [r2, #8]
  4c:	2012      	movs	r0, #18
  4e:	f7ff fffe 	bl	0 <init_adc>
  52:	4b16      	ldr	r3, [pc, #88]	; (ac <init_adc+0xac>)
  54:	689b      	ldr	r3, [r3, #8]
  56:	4a15      	ldr	r2, [pc, #84]	; (ac <init_adc+0xac>)
  58:	f423 6300 	bic.w	r3, r3, #2048	; 0x800
  5c:	6093      	str	r3, [r2, #8]
  5e:	4b13      	ldr	r3, [pc, #76]	; (ac <init_adc+0xac>)
  60:	689b      	ldr	r3, [r3, #8]
  62:	4a12      	ldr	r2, [pc, #72]	; (ac <init_adc+0xac>)
  64:	f043 0308 	orr.w	r3, r3, #8
  68:	6093      	str	r3, [r2, #8]
  6a:	bf00      	nop
  6c:	4b0f      	ldr	r3, [pc, #60]	; (ac <init_adc+0xac>)
  6e:	689b      	ldr	r3, [r3, #8]
  70:	f003 0308 	and.w	r3, r3, #8
  74:	2b00      	cmp	r3, #0
  76:	d1f9      	bne.n	6c <init_adc+0x6c>
  78:	4b0c      	ldr	r3, [pc, #48]	; (ac <init_adc+0xac>)
  7a:	689b      	ldr	r3, [r3, #8]
  7c:	4a0b      	ldr	r2, [pc, #44]	; (ac <init_adc+0xac>)
  7e:	f043 0304 	orr.w	r3, r3, #4
  82:	6093      	str	r3, [r2, #8]
  84:	bf00      	nop
  86:	4b09      	ldr	r3, [pc, #36]	; (ac <init_adc+0xac>)
  88:	689b      	ldr	r3, [r3, #8]
  8a:	f003 0304 	and.w	r3, r3, #4
  8e:	2b00      	cmp	r3, #0
  90:	d1f9      	bne.n	86 <init_adc+0x86>
  92:	4b06      	ldr	r3, [pc, #24]	; (ac <init_adc+0xac>)
  94:	689b      	ldr	r3, [r3, #8]
  96:	4a05      	ldr	r2, [pc, #20]	; (ac <init_adc+0xac>)
  98:	f043 0301 	orr.w	r3, r3, #1
  9c:	6093      	str	r3, [r2, #8]
  9e:	bf00      	nop
  a0:	bd80      	pop	{r7, pc}
  a2:	bf00      	nop
  a4:	40021000 	andmi	r1, r2, r0
  a8:	40010800 	andmi	r0, r1, r0, lsl #16
  ac:	40012400 	andmi	r2, r1, r0, lsl #8

Disassembly of section .text.ADC_IRQHandler:

00000000 <ADC_IRQHandler>:
   0:	b480      	push	{r7}
   2:	af00      	add	r7, sp, #0
   4:	4b05      	ldr	r3, [pc, #20]	; (1c <ADC_IRQHandler+0x1c>)
   6:	2201      	movs	r2, #1
   8:	601a      	str	r2, [r3, #0]
   a:	4b05      	ldr	r3, [pc, #20]	; (20 <ADC_IRQHandler+0x20>)
   c:	6cdb      	ldr	r3, [r3, #76]	; 0x4c
   e:	b29a      	uxth	r2, r3
  10:	4b04      	ldr	r3, [pc, #16]	; (24 <ADC_IRQHandler+0x24>)
  12:	801a      	strh	r2, [r3, #0]
  14:	bf00      	nop
  16:	46bd      	mov	sp, r7
  18:	bc80      	pop	{r7}
  1a:	4770      	bx	lr
  1c:	00000000 	andeq	r0, r0, r0
  20:	40012400 	andmi	r2, r1, r0, lsl #8
  24:	00000000 	andeq	r0, r0, r0

Disassembly of section .text.main:

00000000 <main>:
   0:	b580      	push	{r7, lr}
   2:	b082      	sub	sp, #8
   4:	af00      	add	r7, sp, #0
   6:	f7ff fffe 	bl	0 <main>
   a:	f44f 5016 	mov.w	r0, #9600	; 0x2580
   e:	f7ff fffe 	bl	0 <main>
  12:	4b16      	ldr	r3, [pc, #88]	; (6c <main+0x6c>)
  14:	681b      	ldr	r3, [r3, #0]
  16:	4a16      	ldr	r2, [pc, #88]	; (70 <main+0x70>)
  18:	fba2 2303 	umull	r2, r3, r2, r3
  1c:	099b      	lsrs	r3, r3, #6
  1e:	4618      	mov	r0, r3
  20:	f7ff fffe 	bl	0 <main>
  24:	4603      	mov	r3, r0
  26:	607b      	str	r3, [r7, #4]
  28:	687b      	ldr	r3, [r7, #4]
  2a:	2b00      	cmp	r3, #0
  2c:	da00      	bge.n	30 <main+0x30>
  2e:	e7fe      	b.n	2e <main+0x2e>
  30:	f7ff fffe 	bl	0 <main>
  34:	480f      	ldr	r0, [pc, #60]	; (74 <main+0x74>)
  36:	f7ff fffe 	bl	0 <USART1_puts>
  3a:	4b0f      	ldr	r3, [pc, #60]	; (78 <main+0x78>)
  3c:	681b      	ldr	r3, [r3, #0]
  3e:	2b00      	cmp	r3, #0
  40:	d0fb      	beq.n	3a <main+0x3a>
  42:	4b0e      	ldr	r3, [pc, #56]	; (7c <main+0x7c>)
  44:	881b      	ldrh	r3, [r3, #0]
  46:	461a      	mov	r2, r3
  48:	490d      	ldr	r1, [pc, #52]	; (80 <main+0x80>)
  4a:	480e      	ldr	r0, [pc, #56]	; (84 <main+0x84>)
  4c:	f7ff fffe 	bl	0 <sprintf_>
  50:	480c      	ldr	r0, [pc, #48]	; (84 <main+0x84>)
  52:	f7ff fffe 	bl	0 <USART1_puts>
  56:	4b08      	ldr	r3, [pc, #32]	; (78 <main+0x78>)
  58:	2200      	movs	r2, #0
  5a:	601a      	str	r2, [r3, #0]
  5c:	4b0a      	ldr	r3, [pc, #40]	; (88 <main+0x88>)
  5e:	689b      	ldr	r3, [r3, #8]
  60:	4a09      	ldr	r2, [pc, #36]	; (88 <main+0x88>)
  62:	f043 0301 	orr.w	r3, r3, #1
  66:	6093      	str	r3, [r2, #8]
  68:	e7e7      	b.n	3a <main+0x3a>
  6a:	bf00      	nop
  6c:	00000000 	andeq	r0, r0, r0
  70:	10624dd3 	ldrdne	r4, [r2], #-211	; 0xffffff2d	; <UNPREDICTABLE>
	...
  80:	0000000c 	andeq	r0, r0, ip
  84:	00000000 	andeq	r0, r0, r0
  88:	40012400 	andmi	r2, r1, r0, lsl #8
